target datalayout = "e-m:e-p270:32:32-p271:32:32-p272:64:64-i64:64-i128:128-f80:128-n8:16:32:64-S128"
target triple = "x86_64-pc-linux-gnu"

%"class.zmq::ctx_t" = type <{ %"class.zmq::thread_ctx_t", i32, [4 x i8], %"class.zmq::array_t", %"class.std::vector.6", i8, i8, [6 x i8], %"class.zmq::mutex_t", ptr, %"class.std::vector.11", %"class.std::vector.16", %"class.zmq::mailbox_t", %"class.std::map", %"class.std::multimap", %"class.zmq::mutex_t", i32, i32, i32, i8, i8, i8, i8, i32, [4 x i8] }>
%"class.zmq::thread_ctx_t" = type { %"class.zmq::mutex_t", i32, i32, %"class.std::set", %"class.std::__cxx11::basic_string" }
%"class.std::set" = type { %"class.std::_Rb_tree" }
%"class.std::_Rb_tree" = type { %"struct.std::_Rb_tree<int, int, std::_Identity<int>, std::less<int>>::_Rb_tree_impl" }
%"struct.std::_Rb_tree<int, int, std::_Identity<int>, std::less<int>>::_Rb_tree_impl" = type { [8 x i8], %"struct.std::_Rb_tree_header" }
%"struct.std::_Rb_tree_header" = type { %"struct.std::_Rb_tree_node_base", i64 }
%"struct.std::_Rb_tree_node_base" = type { i32, ptr, ptr, ptr }
%"class.std::__cxx11::basic_string" = type { %"struct.std::__cxx11::basic_string<char>::_Alloc_hider", i64, %union.anon }
%"struct.std::__cxx11::basic_string<char>::_Alloc_hider" = type { ptr }
%union.anon = type { i64, [8 x i8] }
%"class.zmq::array_t" = type { %"class.std::vector" }
%"class.std::vector" = type { %"struct.std::_Vector_base" }
%"struct.std::_Vector_base" = type { %"struct.std::_Vector_base<zmq::socket_base_t *, std::allocator<zmq::socket_base_t *>>::_Vector_impl" }
%"struct.std::_Vector_base<zmq::socket_base_t *, std::allocator<zmq::socket_base_t *>>::_Vector_impl" = type { %"struct.std::_Vector_base<zmq::socket_base_t *, std::allocator<zmq::socket_base_t *>>::_Vector_impl_data" }
%"struct.std::_Vector_base<zmq::socket_base_t *, std::allocator<zmq::socket_base_t *>>::_Vector_impl_data" = type { ptr, ptr, ptr }
%"class.std::vector.6" = type { %"struct.std::_Vector_base.7" }
%"struct.std::_Vector_base.7" = type { %"struct.std::_Vector_base<unsigned int, std::allocator<unsigned int>>::_Vector_impl" }
%"struct.std::_Vector_base<unsigned int, std::allocator<unsigned int>>::_Vector_impl" = type { %"struct.std::_Vector_base<unsigned int, std::allocator<unsigned int>>::_Vector_impl_data" }
%"struct.std::_Vector_base<unsigned int, std::allocator<unsigned int>>::_Vector_impl_data" = type { ptr, ptr, ptr }
%"class.std::vector.11" = type { %"struct.std::_Vector_base.12" }
%"struct.std::_Vector_base.12" = type { %"struct.std::_Vector_base<zmq::io_thread_t *, std::allocator<zmq::io_thread_t *>>::_Vector_impl" }
%"struct.std::_Vector_base<zmq::io_thread_t *, std::allocator<zmq::io_thread_t *>>::_Vector_impl" = type { %"struct.std::_Vector_base<zmq::io_thread_t *, std::allocator<zmq::io_thread_t *>>::_Vector_impl_data" }
%"struct.std::_Vector_base<zmq::io_thread_t *, std::allocator<zmq::io_thread_t *>>::_Vector_impl_data" = type { ptr, ptr, ptr }
%"class.std::vector.16" = type { %"struct.std::_Vector_base.17" }
%"struct.std::_Vector_base.17" = type { %"struct.std::_Vector_base<zmq::i_mailbox *, std::allocator<zmq::i_mailbox *>>::_Vector_impl" }
%"struct.std::_Vector_base<zmq::i_mailbox *, std::allocator<zmq::i_mailbox *>>::_Vector_impl" = type { %"struct.std::_Vector_base<zmq::i_mailbox *, std::allocator<zmq::i_mailbox *>>::_Vector_impl_data" }
%"struct.std::_Vector_base<zmq::i_mailbox *, std::allocator<zmq::i_mailbox *>>::_Vector_impl_data" = type { ptr, ptr, ptr }
%"class.zmq::mailbox_t" = type <{ %"class.zmq::i_mailbox", %"class.zmq::ypipe_t", %"class.zmq::signaler_t", [4 x i8], %"class.zmq::mutex_t", i8, [7 x i8] }>
%"class.zmq::i_mailbox" = type { ptr }
%"class.zmq::ypipe_t" = type { %"class.zmq::ypipe_base_t", %"class.zmq::yqueue_t", ptr, ptr, ptr, %"class.zmq::atomic_ptr_t.21" }
%"class.zmq::ypipe_base_t" = type { ptr }
%"class.zmq::yqueue_t" = type { ptr, i32, ptr, i32, ptr, i32, %"class.zmq::atomic_ptr_t" }
%"class.zmq::atomic_ptr_t" = type { %"struct.std::atomic" }
%"struct.std::atomic" = type { %"struct.std::__atomic_base" }
%"struct.std::__atomic_base" = type { ptr }
%"class.zmq::atomic_ptr_t.21" = type { %"struct.std::atomic.22" }
%"struct.std::atomic.22" = type { %"struct.std::__atomic_base.23" }
%"struct.std::__atomic_base.23" = type { ptr }
%"class.zmq::signaler_t" = type { i32, i32, i32 }
%"class.std::map" = type { %"class.std::_Rb_tree.24" }
%"class.std::_Rb_tree.24" = type { %"struct.std::_Rb_tree<std::__cxx11::basic_string<char>, std::pair<const std::__cxx11::basic_string<char>, zmq::endpoint_t>, std::_Select1st<std::pair<const std::__cxx11::basic_string<char>, zmq::endpoint_t>>, std::less<std::__cxx11::basic_string<char>>>::_Rb_tree_impl" }
%"struct.std::_Rb_tree<std::__cxx11::basic_string<char>, std::pair<const std::__cxx11::basic_string<char>, zmq::endpoint_t>, std::_Select1st<std::pair<const std::__cxx11::basic_string<char>, zmq::endpoint_t>>, std::less<std::__cxx11::basic_string<char>>>::_Rb_tree_impl" = type { [8 x i8], %"struct.std::_Rb_tree_header" }
%"class.std::multimap" = type { %"class.std::_Rb_tree.29" }
%"class.std::_Rb_tree.29" = type { %"struct.std::_Rb_tree<std::__cxx11::basic_string<char>, std::pair<const std::__cxx11::basic_string<char>, zmq::ctx_t::pending_connection_t>, std::_Select1st<std::pair<const std::__cxx11::basic_string<char>, zmq::ctx_t::pending_connection_t>>, std::less<std::__cxx11::basic_string<char>>>::_Rb_tree_impl" }
%"struct.std::_Rb_tree<std::__cxx11::basic_string<char>, std::pair<const std::__cxx11::basic_string<char>, zmq::ctx_t::pending_connection_t>, std::_Select1st<std::pair<const std::__cxx11::basic_string<char>, zmq::ctx_t::pending_connection_t>>, std::less<std::__cxx11::basic_string<char>>>::_Rb_tree_impl" = type { [8 x i8], %"struct.std::_Rb_tree_header" }
%"class.zmq::mutex_t" = type <{ %union.pthread_mutex_t, %union.pthread_mutexattr_t, [4 x i8] }>
%union.pthread_mutex_t = type { %struct.__pthread_mutex_s }
%struct.__pthread_mutex_s = type { i32, i32, i32, i32, i32, i16, i16, %struct.__pthread_internal_list }
%struct.__pthread_internal_list = type { ptr, ptr }
%union.pthread_mutexattr_t = type { i32 }

; Function Attrs: mustprogress nounwind uwtable
define linkonce_odr noundef nonnull align 8 dereferenceable(8) ptr @_ZNSt6vectorIPN3zmq9i_mailboxESaIS2_EEixEm(ptr noundef nonnull align 8 dereferenceable(24) %0, i64 noundef %1) #1 comdat align 2 {
  %3 = alloca ptr, align 8
  %4 = alloca i64, align 8
  store ptr %0, ptr %3, align 8, !tbaa !98
  store i64 %1, ptr %4, align 8, !tbaa !110
  %5 = load ptr, ptr %3, align 8
  %6 = getelementptr inbounds nuw %"struct.std::_Vector_base.17", ptr %5, i32 0, i32 0
  %7 = getelementptr inbounds nuw %"struct.std::_Vector_base<zmq::i_mailbox *, std::allocator<zmq::i_mailbox *>>::_Vector_impl_data", ptr %6, i32 0, i32 0
  %8 = load ptr, ptr %7, align 8, !tbaa !104
  %9 = load i64, ptr %4, align 8, !tbaa !110
  %10 = getelementptr inbounds nuw ptr, ptr %8, i64 %9
  ret ptr %10
}

; Function Attrs: mustprogress uwtable
define void @_ZN3zmq5ctx_t12send_commandEjRKNS_9command_tE(ptr noundef nonnull align 8 dereferenceable(648) %0, i32 noundef %1, ptr noundef nonnull align 64 dereferenceable(64) %2) #0 align 2 {
  %4 = alloca ptr, align 8
  %5 = alloca i32, align 4
  %6 = alloca ptr, align 8
  store ptr %0, ptr %4, align 8, !tbaa !3
  store i32 %1, ptr %5, align 4, !tbaa !92
  store ptr %2, ptr %6, align 8, !tbaa !166
  %7 = load ptr, ptr %4, align 8
  %8 = getelementptr inbounds nuw %"class.zmq::ctx_t", ptr %7, i32 0, i32 11
  %9 = load i32, ptr %5, align 4, !tbaa !92
  %10 = zext i32 %9 to i64
  %11 = call noundef nonnull align 8 dereferenceable(8) ptr @_ZNSt6vectorIPN3zmq9i_mailboxESaIS2_EEixEm(ptr noundef nonnull align 8 dereferenceable(24) %8, i64 noundef %10) #21
  %12 = load ptr, ptr %11, align 8, !tbaa !134
  %13 = load ptr, ptr %6, align 8, !tbaa !166
  %14 = load ptr, ptr %12, align 8, !tbaa !122
  %15 = getelementptr inbounds ptr, ptr %14, i64 2
  %16 = load ptr, ptr %15, align 8
  call void %16(ptr noundef nonnull align 8 dereferenceable(8) %12, ptr noundef nonnull align 64 dereferenceable(64) %13)
  ret void
}