; Function Attrs: mustprogress uwtable
define void @_ZN3zmq5ctx_t12send_commandEjRKNS_9command_tE(ptr noundef nonnull readonly align 8 captures(none) dereferenceable(648) %0, i32 noundef %1, ptr noundef nonnull align 64 dereferenceable(64) %2) local_unnamed_addr #0 align 2 {
  %4 = getelementptr inbounds nuw i8, ptr %0, i64 280
  %5 = zext i32 %1 to i64
  %6 = load ptr, ptr %4, align 8, !tbaa !89
  %7 = getelementptr inbounds nuw ptr, ptr %6, i64 %5
  %8 = load ptr, ptr %7, align 8, !tbaa !137
  %9 = load ptr, ptr %8, align 8, !tbaa !119
  %10 = getelementptr inbounds nuw i8, ptr %9, i64 16
  %11 = load ptr, ptr %10, align 8
  tail call void %11(ptr noundef nonnull align 8 dereferenceable(8) %8, ptr noundef nonnull align 64 dereferenceable(64) %2)
  ret void
}